; Function Attrs: mustprogress null_pointer_is_valid sspstrong uwtable
define void @_ZN15RtpPlayerDialog12updateGraphsEv(ptr noundef readonly align 8 captures(none) dereferenceable_or_null(472) %0) local_unnamed_addr #0 align 2 {
  %2 = getelementptr inbounds nuw i8, ptr %0, i64 144
  %3 = load ptr, ptr %2, align 8
  %4 = getelementptr inbounds nuw i8, ptr %3, i64 312
  %5 = load ptr, ptr %4, align 8
  tail call void @_ZN15RtpPlayerDialog10createPlotEb(ptr noundef align 8 dereferenceable_or_null(472) %0, i1 noundef zeroext false)
  %6 = getelementptr inbounds nuw i8, ptr %5, i64 48
  %7 = load ptr, ptr %6, align 8
  %8 = getelementptr inbounds nuw i8, ptr %7, i64 64
  %9 = load ptr, ptr %8, align 8
  %10 = getelementptr inbounds nuw i8, ptr %9, i64 104
  %11 = load i32, ptr %10, align 4
  %12 = getelementptr inbounds nuw i8, ptr %9, i64 96
  %13 = load i32, ptr %12, align 4
  %14 = add i32 %11, 1
  %15 = sub i32 %14, %13
  %16 = sitofp i32 %15 to double
  tail call void @_ZN7QCPAxis7rescaleEb(ptr noundef align 8 dereferenceable_or_null(472) %7, i1 noundef zeroext true)
  %17 = load ptr, ptr %6, align 8
  %18 = fadd double %16, 2.000000e+01
  %19 = fdiv double %18, %16
  %20 = getelementptr inbounds nuw i8, ptr %17, i64 304
  %.sroa.0.0.copyload.i = load double, ptr %20, align 8
  %.sroa.2.0..sroa_idx.i = getelementptr inbounds nuw i8, ptr %17, i64 312
  %.sroa.2.0.copyload.i = load double, ptr %.sroa.2.0..sroa_idx.i, align 8
  %21 = fadd double %.sroa.0.0.copyload.i, %.sroa.2.0.copyload.i
  %22 = fmul double %21, 5.000000e-01
  tail call void @_ZN7QCPAxis10scaleRangeEdd(ptr noundef align 8 dereferenceable_or_null(472) %17, double noundef %19, double noundef %22)
  tail call void @_ZN11QCustomPlot6replotENS_15RefreshPriorityE(ptr noundef align 8 dereferenceable_or_null(513) %5, i32 noundef 2)
  ret void
}